target datalayout = "e-m:e-p270:32:32-p271:32:32-p272:64:64-i64:64-i128:128-f80:128-n8:16:32:64-S128"
target triple = "x86_64-pc-linux-gnu"

%struct.Vec_Int_t_ = type { i32, i32, ptr }

@.str.12 = private unnamed_addr constant [5 x i8] c"\0A   \00", align 1
@.str.13 = private unnamed_addr constant [6 x i8] c" %s%s\00", align 1
@.str.14 = private unnamed_addr constant [1 x i8] zeroinitializer, align 1
@.str.15 = private unnamed_addr constant [2 x i8] c",\00", align 1

; Function Attrs: inlinehint nounwind uwtable
define internal i32 @Vec_IntEntry(ptr noundef %0, i32 noundef %1) #3 {
  %3 = alloca ptr, align 8
  %4 = alloca i32, align 4
  store ptr %0, ptr %3, align 8, !tbaa !28
  store i32 %1, ptr %4, align 4, !tbaa !8
  %5 = load ptr, ptr %3, align 8, !tbaa !28
  %6 = getelementptr inbounds nuw %struct.Vec_Int_t_, ptr %5, i32 0, i32 2
  %7 = load ptr, ptr %6, align 8, !tbaa !36
  %8 = load i32, ptr %4, align 4, !tbaa !8
  %9 = sext i32 %8 to i64
  %10 = getelementptr inbounds i32, ptr %7, i64 %9
  %11 = load i32, ptr %10, align 4, !tbaa !8
  ret i32 %11
}

; Function Attrs: inlinehint nounwind uwtable
define internal i32 @Vec_IntSize(ptr noundef %0) #3 {
  %2 = alloca ptr, align 8
  store ptr %0, ptr %2, align 8, !tbaa !28
  %3 = load ptr, ptr %2, align 8, !tbaa !28
  %4 = getelementptr inbounds nuw %struct.Vec_Int_t_, ptr %3, i32 0, i32 1
  %5 = load i32, ptr %4, align 4, !tbaa !35
  ret i32 %5
}

; Function Attrs: nounwind uwtable
define void @Wln_WriteVerIntVec(ptr noundef %0, ptr noundef %1, ptr noundef %2, i32 noundef %3) #0 {
  %5 = alloca ptr, align 8
  %6 = alloca ptr, align 8
  %7 = alloca ptr, align 8
  %8 = alloca i32, align 4
  %9 = alloca ptr, align 8
  %10 = alloca i32, align 4
  %11 = alloca i32, align 4
  %12 = alloca i32, align 4
  %13 = alloca i32, align 4
  %14 = alloca i32, align 4
  store ptr %0, ptr %5, align 8, !tbaa !3
  store ptr %1, ptr %6, align 8, !tbaa !16
  store ptr %2, ptr %7, align 8, !tbaa !28
  store i32 %3, ptr %8, align 4, !tbaa !8
  call void @llvm.lifetime.start.p0(i64 8, ptr %9) #9
  call void @llvm.lifetime.start.p0(i64 4, ptr %10) #9
  %15 = load i32, ptr %8, align 4, !tbaa !8
  store i32 %15, ptr %10, align 4, !tbaa !8
  call void @llvm.lifetime.start.p0(i64 4, ptr %11) #9
  store i32 0, ptr %11, align 4, !tbaa !8
  call void @llvm.lifetime.start.p0(i64 4, ptr %12) #9
  call void @llvm.lifetime.start.p0(i64 4, ptr %13) #9
  call void @llvm.lifetime.start.p0(i64 4, ptr %14) #9
  store i32 0, ptr %13, align 4, !tbaa !8
  br label %16

16:                                               ; preds = %62, %4
  %17 = load i32, ptr %13, align 4, !tbaa !8
  %18 = load ptr, ptr %7, align 8, !tbaa !28
  %19 = call i32 @Vec_IntSize(ptr noundef %18)
  %20 = icmp slt i32 %17, %19
  br i1 %20, label %21, label %25

21:                                               ; preds = %16
  %22 = load ptr, ptr %7, align 8, !tbaa !28
  %23 = load i32, ptr %13, align 4, !tbaa !8
  %24 = call i32 @Vec_IntEntry(ptr noundef %22, i32 noundef %23)
  store i32 %24, ptr %14, align 4, !tbaa !8
  br label %25

25:                                               ; preds = %21, %16
  %26 = phi i1 [ false, %16 ], [ true, %21 ]
  br i1 %26, label %27, label %65

27:                                               ; preds = %25
  %28 = load ptr, ptr %6, align 8, !tbaa !16
  %29 = load i32, ptr %14, align 4, !tbaa !8
  %30 = call ptr @Wln_ObjName(ptr noundef %28, i32 noundef %29)
  store ptr %30, ptr %9, align 8, !tbaa !40
  %31 = load ptr, ptr %9, align 8, !tbaa !40
  %32 = call i64 @strlen(ptr noundef %31) #10
  %33 = add i64 %32, 2
  %34 = trunc i64 %33 to i32
  store i32 %34, ptr %12, align 4, !tbaa !8
  %35 = load i32, ptr %11, align 4, !tbaa !8
  %36 = icmp ne i32 %35, 0
  br i1 %36, label %37, label %47

37:                                               ; preds = %27
  %38 = load i32, ptr %10, align 4, !tbaa !8
  %39 = load i32, ptr %12, align 4, !tbaa !8
  %40 = add nsw i32 %38, %39
  %41 = add nsw i32 %40, 3
  %42 = icmp sgt i32 %41, 70
  br i1 %42, label %43, label %47

43:                                               ; preds = %37
  %44 = load ptr, ptr %5, align 8, !tbaa !3
  %45 = call i32 (ptr, ptr, ...) @fprintf(ptr noundef %44, ptr noundef @.str.12) #9
  %46 = load i32, ptr %8, align 4, !tbaa !8
  store i32 %46, ptr %10, align 4, !tbaa !8
  store i32 0, ptr %11, align 4, !tbaa !8
  br label %47

47:                                               ; preds = %43, %37, %27
  %48 = load ptr, ptr %5, align 8, !tbaa !3
  %49 = load ptr, ptr %9, align 8, !tbaa !40
  %50 = load i32, ptr %13, align 4, !tbaa !8
  %51 = load ptr, ptr %7, align 8, !tbaa !28
  %52 = call i32 @Vec_IntSize(ptr noundef %51)
  %53 = sub nsw i32 %52, 1
  %54 = icmp eq i32 %50, %53
  %55 = select i1 %54, ptr @.str.14, ptr @.str.15
  %56 = call i32 (ptr, ptr, ...) @fprintf(ptr noundef %48, ptr noundef @.str.13, ptr noundef %49, ptr noundef %55) #9
  %57 = load i32, ptr %12, align 4, !tbaa !8
  %58 = load i32, ptr %10, align 4, !tbaa !8
  %59 = add nsw i32 %58, %57
  store i32 %59, ptr %10, align 4, !tbaa !8
  %60 = load i32, ptr %11, align 4, !tbaa !8
  %61 = add nsw i32 %60, 1
  store i32 %61, ptr %11, align 4, !tbaa !8
  br label %62

62:                                               ; preds = %47
  %63 = load i32, ptr %13, align 4, !tbaa !8
  %64 = add nsw i32 %63, 1
  store i32 %64, ptr %13, align 4, !tbaa !8
  br label %16, !llvm.loop !41

65:                                               ; preds = %25
  call void @llvm.lifetime.end.p0(i64 4, ptr %14) #9
  call void @llvm.lifetime.end.p0(i64 4, ptr %13) #9
  call void @llvm.lifetime.end.p0(i64 4, ptr %12) #9
  call void @llvm.lifetime.end.p0(i64 4, ptr %11) #9
  call void @llvm.lifetime.end.p0(i64 4, ptr %10) #9
  call void @llvm.lifetime.end.p0(i64 8, ptr %9) #9
  ret void
}