; Function Attrs: nounwind uwtable
define void @Wln_WriteVerIntVec(ptr noundef captures(none) %0, ptr noundef %1, ptr noundef readonly captures(none) %2, i32 noundef %3) local_unnamed_addr #3 {
  %5 = getelementptr i8, ptr %2, i64 4
  %.val25 = load i32, ptr %5, align 4, !tbaa !23
  %6 = icmp sgt i32 %.val25, 0
  br i1 %6, label %.lr.ph, label %.critedge

.lr.ph:                                           ; preds = %4
  %7 = getelementptr i8, ptr %2, i64 8
  br label %8

8:                                                ; preds = %.lr.ph, %20
  %indvars.iv = phi i64 [ 0, %.lr.ph ], [ %indvars.iv.next, %20 ]
  %.028 = phi i32 [ %3, %.lr.ph ], [ %26, %20 ]
  %.02126 = phi i32 [ 0, %.lr.ph ], [ %27, %20 ]
  %.val24 = load ptr, ptr %7, align 8, !tbaa !24
  %9 = getelementptr inbounds nuw i32, ptr %.val24, i64 %indvars.iv
  %10 = load i32, ptr %9, align 4, !tbaa !25
  %11 = tail call ptr @Wln_ObjName(ptr noundef %1, i32 noundef %10) #12
  %12 = tail call i64 @strlen(ptr noundef nonnull dereferenceable(1) %11) #14
  %13 = trunc i64 %12 to i32
  %14 = add i32 %13, 2
  %.not = icmp eq i32 %.02126, 0
  br i1 %.not, label %20, label %15

15:                                               ; preds = %8
  %16 = add nsw i32 %14, %.028
  %17 = icmp sgt i32 %16, 67
  br i1 %17, label %18, label %20

18:                                               ; preds = %15
  %19 = tail call i64 @fwrite(ptr nonnull @.str.12, i64 4, i64 1, ptr %0)
  br label %20

20:                                               ; preds = %18, %15, %8
  %.122 = phi i32 [ 0, %18 ], [ %.02126, %15 ], [ 0, %8 ]
  %.1 = phi i32 [ %3, %18 ], [ %.028, %15 ], [ %.028, %8 ]
  %.val23 = load i32, ptr %5, align 4, !tbaa !23
  %21 = add nsw i32 %.val23, -1
  %22 = zext i32 %21 to i64
  %23 = icmp eq i64 %indvars.iv, %22
  %24 = select i1 %23, ptr @.str.14, ptr @.str.15
  %25 = tail call i32 (ptr, ptr, ...) @fprintf(ptr noundef %0, ptr noundef nonnull @.str.13, ptr noundef nonnull %11, ptr noundef nonnull %24) #12
  %26 = add nsw i32 %.1, %14
  %27 = add nsw i32 %.122, 1
  %indvars.iv.next = add nuw nsw i64 %indvars.iv, 1
  %.val = load i32, ptr %5, align 4, !tbaa !23
  %28 = sext i32 %.val to i64
  %29 = icmp slt i64 %indvars.iv.next, %28
  br i1 %29, label %8, label %.critedge, !llvm.loop !42

.critedge:                                        ; preds = %20, %4
  ret void
}